target datalayout = "e-m:e-p270:32:32-p271:32:32-p272:64:64-i64:64-i128:128-f80:128-n8:16:32:64-S128"
target triple = "x86_64-unknown-linux-gnu"

%"class.OpenColorIO_v2_4dev::GammaBasicOpCPU" = type { %"class.OpenColorIO_v2_4dev::OpCPU", float, float, float, float }
%"class.OpenColorIO_v2_4dev::OpCPU" = type { ptr }

; Function Attrs: mustprogress nounwind uwtable
define linkonce_odr noundef float @_ZSt3powff(float noundef %__x, float noundef %__y) #5 comdat {
entry:
  %__x.addr = alloca float, align 4
  %__y.addr = alloca float, align 4
  store float %__x, ptr %__x.addr, align 4
  store float %__y, ptr %__y.addr, align 4
  %0 = load float, ptr %__x.addr, align 4
  %1 = load float, ptr %__y.addr, align 4
  %call = call float @powf(float noundef %0, float noundef %1) #3
  ret float %call
}

; Function Attrs: mustprogress nounwind uwtable
define linkonce_odr noundef float @_ZSt4fabsf(float noundef %__x) #5 comdat {
entry:
  %__x.addr = alloca float, align 4
  store float %__x, ptr %__x.addr, align 4
  %0 = load float, ptr %__x.addr, align 4
  %1 = call float @llvm.fabs.f32(float %0)
  ret float %1
}

; Function Attrs: mustprogress nounwind uwtable
define linkonce_odr noundef float @_ZSt8copysignff(float noundef %__x, float noundef %__y) #5 comdat {
entry:
  %__x.addr = alloca float, align 4
  %__y.addr = alloca float, align 4
  store float %__x, ptr %__x.addr, align 4
  store float %__y, ptr %__y.addr, align 4
  %0 = load float, ptr %__x.addr, align 4
  %1 = load float, ptr %__y.addr, align 4
  %2 = call float @llvm.copysign.f32(float %0, float %1)
  ret float %2
}

; Function Attrs: mustprogress uwtable
define hidden void @_ZNK19OpenColorIO_v2_4dev21GammaBasicMirrorOpCPU5applyEPKvPvl(ptr noundef nonnull align 8 dereferenceable(24) %this, ptr noundef %inImg, ptr noundef %outImg, i64 noundef %numPixels) unnamed_addr #6 align 2 {
entry:
  %this.addr = alloca ptr, align 8
  %inImg.addr = alloca ptr, align 8
  %outImg.addr = alloca ptr, align 8
  %numPixels.addr = alloca i64, align 8
  %in = alloca ptr, align 8
  %out = alloca ptr, align 8
  %idx = alloca i64, align 8
  %sign = alloca [4 x float], align 16
  %pixel = alloca [4 x float], align 16
  store ptr %this, ptr %this.addr, align 8
  store ptr %inImg, ptr %inImg.addr, align 8
  store ptr %outImg, ptr %outImg.addr, align 8
  store i64 %numPixels, ptr %numPixels.addr, align 8
  %this1 = load ptr, ptr %this.addr, align 8
  %0 = load ptr, ptr %inImg.addr, align 8
  store ptr %0, ptr %in, align 8
  %1 = load ptr, ptr %outImg.addr, align 8
  store ptr %1, ptr %out, align 8
  store i64 0, ptr %idx, align 8
  br label %for.cond

for.cond:                                         ; preds = %for.inc, %entry
  %2 = load i64, ptr %idx, align 8
  %3 = load i64, ptr %numPixels.addr, align 8
  %cmp = icmp slt i64 %2, %3
  br i1 %cmp, label %for.body, label %for.end

for.body:                                         ; preds = %for.cond
  %arrayinit.begin = getelementptr inbounds [4 x float], ptr %sign, i64 0, i64 0
  %4 = load ptr, ptr %in, align 8
  %arrayidx = getelementptr inbounds float, ptr %4, i64 0
  %5 = load float, ptr %arrayidx, align 4
  %call = call noundef float @_ZSt8copysignff(float noundef 1.000000e+00, float noundef %5)
  store float %call, ptr %arrayinit.begin, align 4
  %arrayinit.element = getelementptr inbounds float, ptr %arrayinit.begin, i64 1
  %6 = load ptr, ptr %in, align 8
  %arrayidx2 = getelementptr inbounds float, ptr %6, i64 1
  %7 = load float, ptr %arrayidx2, align 4
  %call3 = call noundef float @_ZSt8copysignff(float noundef 1.000000e+00, float noundef %7)
  store float %call3, ptr %arrayinit.element, align 4
  %arrayinit.element4 = getelementptr inbounds float, ptr %arrayinit.element, i64 1
  %8 = load ptr, ptr %in, align 8
  %arrayidx5 = getelementptr inbounds float, ptr %8, i64 2
  %9 = load float, ptr %arrayidx5, align 4
  %call6 = call noundef float @_ZSt8copysignff(float noundef 1.000000e+00, float noundef %9)
  store float %call6, ptr %arrayinit.element4, align 4
  %arrayinit.element7 = getelementptr inbounds float, ptr %arrayinit.element4, i64 1
  %10 = load ptr, ptr %in, align 8
  %arrayidx8 = getelementptr inbounds float, ptr %10, i64 3
  %11 = load float, ptr %arrayidx8, align 4
  %call9 = call noundef float @_ZSt8copysignff(float noundef 1.000000e+00, float noundef %11)
  store float %call9, ptr %arrayinit.element7, align 4
  %arrayinit.begin10 = getelementptr inbounds [4 x float], ptr %pixel, i64 0, i64 0
  %12 = load ptr, ptr %in, align 8
  %arrayidx11 = getelementptr inbounds float, ptr %12, i64 0
  %13 = load float, ptr %arrayidx11, align 4
  %call12 = call noundef float @_ZSt4fabsf(float noundef %13)
  store float %call12, ptr %arrayinit.begin10, align 4
  %arrayinit.element13 = getelementptr inbounds float, ptr %arrayinit.begin10, i64 1
  %14 = load ptr, ptr %in, align 8
  %arrayidx14 = getelementptr inbounds float, ptr %14, i64 1
  %15 = load float, ptr %arrayidx14, align 4
  %call15 = call noundef float @_ZSt4fabsf(float noundef %15)
  store float %call15, ptr %arrayinit.element13, align 4
  %arrayinit.element16 = getelementptr inbounds float, ptr %arrayinit.element13, i64 1
  %16 = load ptr, ptr %in, align 8
  %arrayidx17 = getelementptr inbounds float, ptr %16, i64 2
  %17 = load float, ptr %arrayidx17, align 4
  %call18 = call noundef float @_ZSt4fabsf(float noundef %17)
  store float %call18, ptr %arrayinit.element16, align 4
  %arrayinit.element19 = getelementptr inbounds float, ptr %arrayinit.element16, i64 1
  %18 = load ptr, ptr %in, align 8
  %arrayidx20 = getelementptr inbounds float, ptr %18, i64 3
  %19 = load float, ptr %arrayidx20, align 4
  %call21 = call noundef float @_ZSt4fabsf(float noundef %19)
  store float %call21, ptr %arrayinit.element19, align 4
  %arrayidx22 = getelementptr inbounds [4 x float], ptr %sign, i64 0, i64 0
  %20 = load float, ptr %arrayidx22, align 16
  %arrayidx23 = getelementptr inbounds [4 x float], ptr %pixel, i64 0, i64 0
  %21 = load float, ptr %arrayidx23, align 16
  %m_redGamma = getelementptr inbounds %"class.OpenColorIO_v2_4dev::GammaBasicOpCPU", ptr %this1, i32 0, i32 1
  %22 = load float, ptr %m_redGamma, align 8
  %call24 = call noundef float @_ZSt3powff(float noundef %21, float noundef %22)
  %mul = fmul float %20, %call24
  %23 = load ptr, ptr %out, align 8
  %arrayidx25 = getelementptr inbounds float, ptr %23, i64 0
  store float %mul, ptr %arrayidx25, align 4
  %arrayidx26 = getelementptr inbounds [4 x float], ptr %sign, i64 0, i64 1
  %24 = load float, ptr %arrayidx26, align 4
  %arrayidx27 = getelementptr inbounds [4 x float], ptr %pixel, i64 0, i64 1
  %25 = load float, ptr %arrayidx27, align 4
  %m_grnGamma = getelementptr inbounds %"class.OpenColorIO_v2_4dev::GammaBasicOpCPU", ptr %this1, i32 0, i32 2
  %26 = load float, ptr %m_grnGamma, align 4
  %call28 = call noundef float @_ZSt3powff(float noundef %25, float noundef %26)
  %mul29 = fmul float %24, %call28
  %27 = load ptr, ptr %out, align 8
  %arrayidx30 = getelementptr inbounds float, ptr %27, i64 1
  store float %mul29, ptr %arrayidx30, align 4
  %arrayidx31 = getelementptr inbounds [4 x float], ptr %sign, i64 0, i64 2
  %28 = load float, ptr %arrayidx31, align 8
  %arrayidx32 = getelementptr inbounds [4 x float], ptr %pixel, i64 0, i64 2
  %29 = load float, ptr %arrayidx32, align 8
  %m_bluGamma = getelementptr inbounds %"class.OpenColorIO_v2_4dev::GammaBasicOpCPU", ptr %this1, i32 0, i32 3
  %30 = load float, ptr %m_bluGamma, align 8
  %call33 = call noundef float @_ZSt3powff(float noundef %29, float noundef %30)
  %mul34 = fmul float %28, %call33
  %31 = load ptr, ptr %out, align 8
  %arrayidx35 = getelementptr inbounds float, ptr %31, i64 2
  store float %mul34, ptr %arrayidx35, align 4
  %arrayidx36 = getelementptr inbounds [4 x float], ptr %sign, i64 0, i64 3
  %32 = load float, ptr %arrayidx36, align 4
  %arrayidx37 = getelementptr inbounds [4 x float], ptr %pixel, i64 0, i64 3
  %33 = load float, ptr %arrayidx37, align 4
  %m_alpGamma = getelementptr inbounds %"class.OpenColorIO_v2_4dev::GammaBasicOpCPU", ptr %this1, i32 0, i32 4
  %34 = load float, ptr %m_alpGamma, align 4
  %call38 = call noundef float @_ZSt3powff(float noundef %33, float noundef %34)
  %mul39 = fmul float %32, %call38
  %35 = load ptr, ptr %out, align 8
  %arrayidx40 = getelementptr inbounds float, ptr %35, i64 3
  store float %mul39, ptr %arrayidx40, align 4
  %36 = load ptr, ptr %in, align 8
  %add.ptr = getelementptr inbounds float, ptr %36, i64 4
  store ptr %add.ptr, ptr %in, align 8
  %37 = load ptr, ptr %out, align 8
  %add.ptr41 = getelementptr inbounds float, ptr %37, i64 4
  store ptr %add.ptr41, ptr %out, align 8
  br label %for.inc

for.inc:                                          ; preds = %for.body
  %38 = load i64, ptr %idx, align 8
  %inc = add nsw i64 %38, 1
  store i64 %inc, ptr %idx, align 8
  br label %for.cond, !llvm.loop !8

for.end:                                          ; preds = %for.cond
  ret void
}