; Function Attrs: mustprogress nofree nounwind memory(readwrite, inaccessiblemem: write) uwtable
define hidden void @_ZNK19OpenColorIO_v2_4dev21GammaBasicMirrorOpCPU5applyEPKvPvl(ptr nocapture noundef nonnull readonly align 8 dereferenceable(24) %this, ptr nocapture noundef readonly %inImg, ptr nocapture noundef writeonly %outImg, i64 noundef %numPixels) unnamed_addr #7 align 2 {
entry:
  %cmp17 = icmp sgt i64 %numPixels, 0
  br i1 %cmp17, label %for.body.lr.ph, label %for.end

for.body.lr.ph:                                   ; preds = %entry
  %m_redGamma = getelementptr inbounds i8, ptr %this, i64 8
  %m_grnGamma = getelementptr inbounds i8, ptr %this, i64 12
  %m_bluGamma = getelementptr inbounds i8, ptr %this, i64 16
  %m_alpGamma = getelementptr inbounds i8, ptr %this, i64 20
  br label %for.body

for.body:                                         ; preds = %for.body.lr.ph, %for.body
  %in.020 = phi ptr [ %inImg, %for.body.lr.ph ], [ %add.ptr, %for.body ]
  %out.019 = phi ptr [ %outImg, %for.body.lr.ph ], [ %add.ptr41, %for.body ]
  %idx.018 = phi i64 [ 0, %for.body.lr.ph ], [ %inc, %for.body ]
  %0 = load float, ptr %in.020, align 4
  %1 = tail call noundef float @llvm.copysign.f32(float 1.000000e+00, float %0)
  %arrayidx2 = getelementptr inbounds i8, ptr %in.020, i64 4
  %2 = load float, ptr %arrayidx2, align 4
  %3 = tail call noundef float @llvm.copysign.f32(float 1.000000e+00, float %2)
  %arrayidx5 = getelementptr inbounds i8, ptr %in.020, i64 8
  %4 = load float, ptr %arrayidx5, align 4
  %5 = tail call noundef float @llvm.copysign.f32(float 1.000000e+00, float %4)
  %arrayidx8 = getelementptr inbounds i8, ptr %in.020, i64 12
  %6 = load float, ptr %arrayidx8, align 4
  %7 = tail call noundef float @llvm.copysign.f32(float 1.000000e+00, float %6)
  %8 = tail call noundef float @llvm.fabs.f32(float %0)
  %9 = tail call noundef float @llvm.fabs.f32(float %2)
  %10 = tail call noundef float @llvm.fabs.f32(float %4)
  %11 = tail call noundef float @llvm.fabs.f32(float %6)
  %12 = load float, ptr %m_redGamma, align 8
  %call.i = tail call noundef float @powf(float noundef %8, float noundef %12) #19
  %mul = fmul float %1, %call.i
  store float %mul, ptr %out.019, align 4
  %13 = load float, ptr %m_grnGamma, align 4
  %call.i14 = tail call noundef float @powf(float noundef %9, float noundef %13) #19
  %mul29 = fmul float %3, %call.i14
  %arrayidx30 = getelementptr inbounds i8, ptr %out.019, i64 4
  store float %mul29, ptr %arrayidx30, align 4
  %14 = load float, ptr %m_bluGamma, align 8
  %call.i15 = tail call noundef float @powf(float noundef %10, float noundef %14) #19
  %mul34 = fmul float %5, %call.i15
  %arrayidx35 = getelementptr inbounds i8, ptr %out.019, i64 8
  store float %mul34, ptr %arrayidx35, align 4
  %15 = load float, ptr %m_alpGamma, align 4
  %call.i16 = tail call noundef float @powf(float noundef %11, float noundef %15) #19
  %mul39 = fmul float %7, %call.i16
  %arrayidx40 = getelementptr inbounds i8, ptr %out.019, i64 12
  store float %mul39, ptr %arrayidx40, align 4
  %add.ptr = getelementptr inbounds i8, ptr %in.020, i64 16
  %add.ptr41 = getelementptr inbounds i8, ptr %out.019, i64 16
  %inc = add nuw nsw i64 %idx.018, 1
  %exitcond.not = icmp eq i64 %inc, %numPixels
  br i1 %exitcond.not, label %for.end, label %for.body, !llvm.loop !51

for.end:                                          ; preds = %for.body, %entry
  ret void
}